target datalayout = "e-m:e-p270:32:32-p271:32:32-p272:64:64-i64:64-i128:128-f80:128-n8:16:32:64-S128"
target triple = "x86_64-pc-linux-gnu"

%struct.IDAMemRec = type { double, ptr, ptr, i32, double, double, ptr, i32, ptr, ptr, i32, ptr, ptr, i32, i32, double, double, ptr, i32, i32, i32, ptr, ptr, i32, ptr, ptr, ptr, i32, double, i32, i32, double, ptr, ptr, i32, ptr, ptr, i32, i32, i32, double, ptr, ptr, [6 x ptr], [6 x double], [6 x double], [6 x double], [6 x double], [6 x double], ptr, ptr, ptr, ptr, ptr, ptr, ptr, ptr, ptr, ptr, ptr, ptr, ptr, ptr, ptr, [6 x ptr], ptr, ptr, ptr, ptr, [6 x ptr], ptr, ptr, ptr, ptr, ptr, ptr, ptr, ptr, ptr, ptr, ptr, ptr, ptr, ptr, [6 x ptr], ptr, ptr, ptr, ptr, ptr, double, ptr, ptr, i32, i32, i32, i32, i32, i32, i32, double, double, double, i32, double, i32, i32, i32, i32, double, double, double, double, double, double, double, double, double, double, double, double, double, double, i32, i32, i32, i32, i32, i64, double, i32, i64, i64, i64, i64, i64, i64, i64, i64, i64, i64, i64, i64, i64, i64, i64, i64, i64, i64, i64, i64, i64, i64, i64, i64, ptr, ptr, ptr, i32, i32, i32, i32, i32, i32, i32, i32, i32, i32, i32, i32, i32, ptr, ptr, ptr, ptr, ptr, ptr, i32, i32, i32, i32, i32, i32, double, double, double, ptr, i32, ptr, ptr, double, double, double, ptr, ptr, ptr, double, double, i32, i32, i64, ptr, i32, i32, ptr, i32 }

; Function Attrs: nounwind uwtable
define double @IDAWrmsNorm(ptr noundef %0, ptr noundef %1, ptr noundef %2, i32 noundef %3) #0 {
  %5 = alloca ptr, align 8
  %6 = alloca ptr, align 8
  %7 = alloca ptr, align 8
  %8 = alloca i32, align 4
  %9 = alloca double, align 8
  store ptr %0, ptr %5, align 8, !tbaa !3
  store ptr %1, ptr %6, align 8, !tbaa !93
  store ptr %2, ptr %7, align 8, !tbaa !93
  store i32 %3, ptr %8, align 4, !tbaa !88
  call void @llvm.lifetime.start.p0(i64 8, ptr %9) #8
  %10 = load i32, ptr %8, align 4, !tbaa !88
  %11 = icmp ne i32 %10, 0
  br i1 %11, label %12, label %19

12:                                               ; preds = %4
  %13 = load ptr, ptr %6, align 8, !tbaa !93
  %14 = load ptr, ptr %7, align 8, !tbaa !93
  %15 = load ptr, ptr %5, align 8, !tbaa !3
  %16 = getelementptr inbounds nuw %struct.IDAMemRec, ptr %15, i32 0, i32 53
  %17 = load ptr, ptr %16, align 8, !tbaa !38
  %18 = call double @N_VWrmsNormMask(ptr noundef %13, ptr noundef %14, ptr noundef %17)
  store double %18, ptr %9, align 8, !tbaa !92
  br label %23

19:                                               ; preds = %4
  %20 = load ptr, ptr %6, align 8, !tbaa !93
  %21 = load ptr, ptr %7, align 8, !tbaa !93
  %22 = call double @N_VWrmsNorm(ptr noundef %20, ptr noundef %21)
  store double %22, ptr %9, align 8, !tbaa !92
  br label %23

23:                                               ; preds = %19, %12
  %24 = load double, ptr %9, align 8, !tbaa !92
  call void @llvm.lifetime.end.p0(i64 8, ptr %9) #8
  ret double %24
}

; Function Attrs: nounwind uwtable
define double @IDASensWrmsNorm(ptr noundef %0, ptr noundef %1, ptr noundef %2, i32 noundef %3) #0 {
  %5 = alloca ptr, align 8
  %6 = alloca ptr, align 8
  %7 = alloca ptr, align 8
  %8 = alloca i32, align 4
  %9 = alloca i32, align 4
  %10 = alloca double, align 8
  %11 = alloca double, align 8
  store ptr %0, ptr %5, align 8, !tbaa !3
  store ptr %1, ptr %6, align 8, !tbaa !94
  store ptr %2, ptr %7, align 8, !tbaa !94
  store i32 %3, ptr %8, align 4, !tbaa !88
  call void @llvm.lifetime.start.p0(i64 4, ptr %9) #8
  call void @llvm.lifetime.start.p0(i64 8, ptr %10) #8
  call void @llvm.lifetime.start.p0(i64 8, ptr %11) #8
  %12 = load ptr, ptr %5, align 8, !tbaa !3
  %13 = load ptr, ptr %6, align 8, !tbaa !94
  %14 = getelementptr inbounds ptr, ptr %13, i64 0
  %15 = load ptr, ptr %14, align 8, !tbaa !93
  %16 = load ptr, ptr %7, align 8, !tbaa !94
  %17 = getelementptr inbounds ptr, ptr %16, i64 0
  %18 = load ptr, ptr %17, align 8, !tbaa !93
  %19 = load i32, ptr %8, align 4, !tbaa !88
  %20 = call double @IDAWrmsNorm(ptr noundef %12, ptr noundef %15, ptr noundef %18, i32 noundef %19)
  store double %20, ptr %10, align 8, !tbaa !92
  store i32 1, ptr %9, align 4, !tbaa !88
  br label %21

21:                                               ; preds = %47, %4
  %22 = load i32, ptr %9, align 4, !tbaa !88
  %23 = load ptr, ptr %5, align 8, !tbaa !3
  %24 = getelementptr inbounds nuw %struct.IDAMemRec, ptr %23, i32 0, i32 19
  %25 = load i32, ptr %24, align 4, !tbaa !173
  %26 = icmp slt i32 %22, %25
  br i1 %26, label %27, label %50

27:                                               ; preds = %21
  %28 = load ptr, ptr %5, align 8, !tbaa !3
  %29 = load ptr, ptr %6, align 8, !tbaa !94
  %30 = load i32, ptr %9, align 4, !tbaa !88
  %31 = sext i32 %30 to i64
  %32 = getelementptr inbounds ptr, ptr %29, i64 %31
  %33 = load ptr, ptr %32, align 8, !tbaa !93
  %34 = load ptr, ptr %7, align 8, !tbaa !94
  %35 = load i32, ptr %9, align 4, !tbaa !88
  %36 = sext i32 %35 to i64
  %37 = getelementptr inbounds ptr, ptr %34, i64 %36
  %38 = load ptr, ptr %37, align 8, !tbaa !93
  %39 = load i32, ptr %8, align 4, !tbaa !88
  %40 = call double @IDAWrmsNorm(ptr noundef %28, ptr noundef %33, ptr noundef %38, i32 noundef %39)
  store double %40, ptr %11, align 8, !tbaa !92
  %41 = load double, ptr %11, align 8, !tbaa !92
  %42 = load double, ptr %10, align 8, !tbaa !92
  %43 = fcmp ogt double %41, %42
  br i1 %43, label %44, label %46

44:                                               ; preds = %27
  %45 = load double, ptr %11, align 8, !tbaa !92
  store double %45, ptr %10, align 8, !tbaa !92
  br label %46

46:                                               ; preds = %44, %27
  br label %47

47:                                               ; preds = %46
  %48 = load i32, ptr %9, align 4, !tbaa !88
  %49 = add nsw i32 %48, 1
  store i32 %49, ptr %9, align 4, !tbaa !88
  br label %21, !llvm.loop !290

50:                                               ; preds = %21
  %51 = load double, ptr %10, align 8, !tbaa !92
  call void @llvm.lifetime.end.p0(i64 8, ptr %11) #8
  call void @llvm.lifetime.end.p0(i64 8, ptr %10) #8
  call void @llvm.lifetime.end.p0(i64 4, ptr %9) #8
  ret double %51
}