; Function Attrs: nounwind uwtable
define double @IDASensWrmsNorm(ptr noundef readonly captures(none) %0, ptr noundef readonly captures(none) %1, ptr noundef readonly captures(none) %2, i32 noundef %3) local_unnamed_addr #0 {
  %5 = load ptr, ptr %1, align 8, !tbaa !57
  %6 = load ptr, ptr %2, align 8, !tbaa !57
  %.not.i = icmp eq i32 %3, 0
  br i1 %.not.i, label %IDAWrmsNorm.exit, label %IDAWrmsNorm.exit.thread

IDAWrmsNorm.exit:                                 ; preds = %4
  %7 = tail call double @N_VWrmsNorm(ptr noundef %5, ptr noundef %6) #13
  %8 = getelementptr inbounds nuw i8, ptr %0, i64 140
  %9 = load i32, ptr %8, align 4, !tbaa !139
  %10 = icmp sgt i32 %9, 1
  br i1 %10, label %IDAWrmsNorm.exit20.us, label %._crit_edge

IDAWrmsNorm.exit.thread:                          ; preds = %4
  %11 = getelementptr inbounds nuw i8, ptr %0, i64 632
  %12 = load ptr, ptr %11, align 8, !tbaa !219
  %13 = tail call double @N_VWrmsNormMask(ptr noundef %5, ptr noundef %6, ptr noundef %12) #13
  %14 = getelementptr inbounds nuw i8, ptr %0, i64 140
  %15 = load i32, ptr %14, align 4, !tbaa !139
  %16 = icmp sgt i32 %15, 1
  br i1 %16, label %IDAWrmsNorm.exit20.preheader, label %._crit_edge

IDAWrmsNorm.exit20.preheader:                     ; preds = %IDAWrmsNorm.exit.thread
  %17 = getelementptr inbounds nuw i8, ptr %0, i64 632
  br label %IDAWrmsNorm.exit20

IDAWrmsNorm.exit20.us:                            ; preds = %IDAWrmsNorm.exit, %IDAWrmsNorm.exit20.us
  %indvars.iv25 = phi i64 [ %indvars.iv.next26, %IDAWrmsNorm.exit20.us ], [ 1, %IDAWrmsNorm.exit ]
  %.01621.us = phi double [ %.1.us, %IDAWrmsNorm.exit20.us ], [ %7, %IDAWrmsNorm.exit ]
  %18 = getelementptr inbounds nuw ptr, ptr %1, i64 %indvars.iv25
  %19 = load ptr, ptr %18, align 8, !tbaa !57
  %20 = getelementptr inbounds nuw ptr, ptr %2, i64 %indvars.iv25
  %21 = load ptr, ptr %20, align 8, !tbaa !57
  %22 = tail call double @N_VWrmsNorm(ptr noundef %19, ptr noundef %21) #13
  %23 = fcmp ogt double %22, %.01621.us
  %.1.us = select i1 %23, double %22, double %.01621.us
  %indvars.iv.next26 = add nuw nsw i64 %indvars.iv25, 1
  %24 = load i32, ptr %8, align 4, !tbaa !139
  %25 = sext i32 %24 to i64
  %26 = icmp slt i64 %indvars.iv.next26, %25
  br i1 %26, label %IDAWrmsNorm.exit20.us, label %._crit_edge, !llvm.loop !249

IDAWrmsNorm.exit20:                               ; preds = %IDAWrmsNorm.exit20.preheader, %IDAWrmsNorm.exit20
  %indvars.iv = phi i64 [ 1, %IDAWrmsNorm.exit20.preheader ], [ %indvars.iv.next, %IDAWrmsNorm.exit20 ]
  %.01621 = phi double [ %13, %IDAWrmsNorm.exit20.preheader ], [ %.1, %IDAWrmsNorm.exit20 ]
  %27 = getelementptr inbounds nuw ptr, ptr %1, i64 %indvars.iv
  %28 = load ptr, ptr %27, align 8, !tbaa !57
  %29 = getelementptr inbounds nuw ptr, ptr %2, i64 %indvars.iv
  %30 = load ptr, ptr %29, align 8, !tbaa !57
  %31 = load ptr, ptr %17, align 8, !tbaa !219
  %32 = tail call double @N_VWrmsNormMask(ptr noundef %28, ptr noundef %30, ptr noundef %31) #13
  %33 = fcmp ogt double %32, %.01621
  %.1 = select i1 %33, double %32, double %.01621
  %indvars.iv.next = add nuw nsw i64 %indvars.iv, 1
  %34 = load i32, ptr %14, align 4, !tbaa !139
  %35 = sext i32 %34 to i64
  %36 = icmp slt i64 %indvars.iv.next, %35
  br i1 %36, label %IDAWrmsNorm.exit20, label %._crit_edge, !llvm.loop !249

._crit_edge:                                      ; preds = %IDAWrmsNorm.exit20, %IDAWrmsNorm.exit20.us, %IDAWrmsNorm.exit.thread, %IDAWrmsNorm.exit
  %.016.lcssa = phi double [ %7, %IDAWrmsNorm.exit ], [ %13, %IDAWrmsNorm.exit.thread ], [ %.1.us, %IDAWrmsNorm.exit20.us ], [ %.1, %IDAWrmsNorm.exit20 ]
  ret double %.016.lcssa
}